target datalayout = "e-m:e-p270:32:32-p271:32:32-p272:64:64-i64:64-i128:128-f80:128-n8:16:32:64-S128"
target triple = "x86_64-pc-linux-gnu"

%struct.tsi_peer = type { ptr, i64 }

; Function Attrs: mustprogress uwtable
define void @_Z26grpc_shallow_peer_destructP8tsi_peer(ptr noundef %0) #5 {
  %2 = alloca ptr, align 8
  store ptr %0, ptr %2, align 8, !tbaa !17
  %3 = load ptr, ptr %2, align 8, !tbaa !17
  %4 = getelementptr inbounds nuw %struct.tsi_peer, ptr %3, i32 0, i32 0
  %5 = load ptr, ptr %4, align 8, !tbaa !60
  %6 = icmp ne ptr %5, null
  br i1 %6, label %7, label %11

7:                                                ; preds = %1
  %8 = load ptr, ptr %2, align 8, !tbaa !17
  %9 = getelementptr inbounds nuw %struct.tsi_peer, ptr %8, i32 0, i32 0
  %10 = load ptr, ptr %9, align 8, !tbaa !60
  call void @gpr_free(ptr noundef %10)
  br label %11

11:                                               ; preds = %7, %1
  ret void
}