; Function Attrs: mustprogress uwtable
define void @_Z26grpc_shallow_peer_destructP8tsi_peer(ptr noundef readonly captures(none) %0) local_unnamed_addr #4 {
  %2 = load ptr, ptr %0, align 8, !tbaa !43
  %.not = icmp eq ptr %2, null
  br i1 %.not, label %4, label %3

3:                                                ; preds = %1
  tail call void @gpr_free(ptr noundef nonnull %2)
  br label %4

4:                                                ; preds = %3, %1
  ret void
}